target datalayout = "e-m:e-p270:32:32-p271:32:32-p272:64:64-i64:64-i128:128-f80:128-n8:16:32:64-S128"
target triple = "x86_64-pc-linux-gnu"

%struct.dynhds = type { ptr, i64, i64, i64, i64, i64, i32 }
%struct.http_resp = type { i32, ptr, %struct.dynhds, %struct.dynhds, ptr }

@Curl_cfree = external global ptr, align 8

; Function Attrs: nounwind uwtable
define dso_local void @Curl_http_resp_free(ptr noundef %0) #0 {
  %2 = alloca ptr, align 8
  store ptr %0, ptr %2, align 8, !tbaa !274
  %3 = load ptr, ptr %2, align 8, !tbaa !274
  %4 = icmp ne ptr %3, null
  br i1 %4, label %5, label %25

5:                                                ; preds = %1
  %6 = load ptr, ptr @Curl_cfree, align 8, !tbaa !97
  %7 = load ptr, ptr %2, align 8, !tbaa !274
  %8 = getelementptr inbounds nuw %struct.http_resp, ptr %7, i32 0, i32 1
  %9 = load ptr, ptr %8, align 8, !tbaa !278
  call void %6(ptr noundef %9)
  %10 = load ptr, ptr %2, align 8, !tbaa !274
  %11 = getelementptr inbounds nuw %struct.http_resp, ptr %10, i32 0, i32 2
  call void @Curl_dynhds_free(ptr noundef %11)
  %12 = load ptr, ptr %2, align 8, !tbaa !274
  %13 = getelementptr inbounds nuw %struct.http_resp, ptr %12, i32 0, i32 3
  call void @Curl_dynhds_free(ptr noundef %13)
  %14 = load ptr, ptr %2, align 8, !tbaa !274
  %15 = getelementptr inbounds nuw %struct.http_resp, ptr %14, i32 0, i32 4
  %16 = load ptr, ptr %15, align 8, !tbaa !279
  %17 = icmp ne ptr %16, null
  br i1 %17, label %18, label %22

18:                                               ; preds = %5
  %19 = load ptr, ptr %2, align 8, !tbaa !274
  %20 = getelementptr inbounds nuw %struct.http_resp, ptr %19, i32 0, i32 4
  %21 = load ptr, ptr %20, align 8, !tbaa !279
  call void @Curl_http_resp_free(ptr noundef %21)
  br label %22

22:                                               ; preds = %18, %5
  %23 = load ptr, ptr @Curl_cfree, align 8, !tbaa !97
  %24 = load ptr, ptr %2, align 8, !tbaa !274
  call void %23(ptr noundef %24)
  br label %25

25:                                               ; preds = %22, %1
  ret void
}